; ModuleID = 'bench/openssl/original/v3_group_ac.ll'
source_filename = "bench/openssl/original/v3_group_ac.ll"
target datalayout = "e-m:e-p270:32:32-p271:32:32-p272:64:64-i64:64-i128:128-f80:128-n8:16:32:64-S128"
target triple = "x86_64-pc-linux-gnu"

%struct.v3_ext_method = type { i32, i32, ptr, ptr, ptr, ptr, ptr, ptr, ptr, ptr, ptr, ptr, ptr, ptr }

@ossl_v3_group_ac = local_unnamed_addr constant %struct.v3_ext_method { i32 1310, i32 0, ptr @ASN1_NULL_it, ptr null, ptr null, ptr null, ptr null, ptr @i2s_GROUP_AC, ptr @s2i_GROUP_AC, ptr null, ptr null, ptr @i2r_GROUP_AC, ptr @r2i_GROUP_AC, ptr null }, align 8
@.str = private unnamed_addr constant [5 x i8] c"NULL\00", align 1
@.str.1 = private unnamed_addr constant [37 x i8] c"../openssl/crypto/x509/v3_group_ac.c\00", align 1

declare ptr @ASN1_NULL_it() #0

; Function Attrs: nounwind uwtable
define internal noalias ptr @i2s_GROUP_AC(ptr readnone captures(none) %0, ptr readnone captures(none) %1) #1 {
  %3 = tail call noalias ptr @CRYPTO_strdup(ptr noundef nonnull @.str, ptr noundef nonnull @.str.1, i32 noundef 32) #3
  ret ptr %3
}

; Function Attrs: nounwind uwtable
define internal ptr @s2i_GROUP_AC(ptr readnone captures(none) %0, ptr readnone captures(none) %1, ptr readnone captures(none) %2) #1 {
  %4 = tail call ptr @ASN1_NULL_new() #3
  ret ptr %4
}

; Function Attrs: mustprogress nofree norecurse nosync nounwind willreturn memory(none) uwtable
define internal noundef i32 @i2r_GROUP_AC(ptr readnone captures(none) %0, ptr readnone captures(none) %1, ptr readnone captures(none) %2, i32 %3) #2 {
  ret i32 1
}

; Function Attrs: nounwind uwtable
define internal ptr @r2i_GROUP_AC(ptr readnone captures(none) %0, ptr readnone captures(none) %1, ptr readnone captures(none) %2) #1 {
  %4 = tail call ptr @ASN1_NULL_new() #3
  ret ptr %4
}

declare noalias ptr @CRYPTO_strdup(ptr noundef, ptr noundef, i32 noundef) local_unnamed_addr #0

declare ptr @ASN1_NULL_new() local_unnamed_addr #0


!llvm.module.flags = !{!0, !1, !2}

!0 = !{i32 1, !"wchar_size", i32 4}
!1 = !{i32 8, !"PIC Level", i32 2}
!2 = !{i32 7, !"uwtable", i32 2}
